target datalayout = "e-m:e-p270:32:32-p271:32:32-p272:64:64-i64:64-i128:128-f80:128-n8:16:32:64-S128"
target triple = "x86_64-pc-linux-gnu"

%struct.SDL_AtomicU32 = type { i32 }

@SDL_hint_props = internal global %struct.SDL_AtomicU32 zeroinitializer, align 4

; Function Attrs: nounwind uwtable
define hidden void @SDL_QuitHints() #0 {
  %1 = alloca i32, align 4
  call void @llvm.lifetime.start.p0(i64 4, ptr %1) #3
  br label %2

2:                                                ; preds = %4, %0
  %3 = call i32 @SDL_GetAtomicU32_REAL(ptr noundef @SDL_hint_props)
  store i32 %3, ptr %1, align 4
  br label %4

4:                                                ; preds = %2
  %5 = load i32, ptr %1, align 4
  %6 = call zeroext i1 @SDL_CompareAndSwapAtomicU32_REAL(ptr noundef @SDL_hint_props, i32 noundef %5, i32 noundef 0)
  %7 = xor i1 %6, true
  br i1 %7, label %2, label %8, !llvm.loop !3

8:                                                ; preds = %4
  %9 = load i32, ptr %1, align 4
  %10 = icmp ne i32 %9, 0
  br i1 %10, label %11, label %13

11:                                               ; preds = %8
  %12 = load i32, ptr %1, align 4
  call void @SDL_DestroyProperties_REAL(i32 noundef %12)
  br label %13

13:                                               ; preds = %11, %8
  call void @llvm.lifetime.end.p0(i64 4, ptr %1) #3
  ret void
}