; Function Attrs: nounwind uwtable
define hidden void @SDL_QuitHints() local_unnamed_addr #1 {
  br label %1

1:                                                ; preds = %1, %0
  %2 = tail call i32 @SDL_GetAtomicU32_REAL(ptr noundef nonnull @SDL_hint_props) #3
  %3 = tail call zeroext i1 @SDL_CompareAndSwapAtomicU32_REAL(ptr noundef nonnull @SDL_hint_props, i32 noundef %2, i32 noundef 0) #3
  br i1 %3, label %4, label %1, !llvm.loop !3

4:                                                ; preds = %1
  %.not = icmp eq i32 %2, 0
  br i1 %.not, label %6, label %5

5:                                                ; preds = %4
  tail call void @SDL_DestroyProperties_REAL(i32 noundef %2) #3
  br label %6

6:                                                ; preds = %5, %4
  ret void
}